(cnumpy.core.multiarray
scalar
p0
(cnumpy
dtype
p1
(S'f8'
p2
I0
I1
tp3
Rp4
(I3
S'<'
p5
NNNI-1
I-1
I0
tp6
bS'\xd9\x99W\x1bQ\xd6L@'
p7
tp8
Rp9
g0
(g4
S'z\x19=\x99-\x8dL@'
p10
tp11
Rp12
g0
(g4
S'\xdaW\xcc\x04\x92\xe6L@'
p13
tp14
Rp15
g0
(g4
S'>\x10\xc8C\xd3\x8cL@'
p16
tp17
Rp18
g0
(g4
S'H\x13:\x8a\xc7\x8fK@'
p19
tp20
Rp21
tp22
.